target datalayout = "e-m:e-p270:32:32-p271:32:32-p272:64:64-i64:64-i128:128-f80:128-n8:16:32:64-S128"
target triple = "x86_64-pc-linux-gnu"

%struct._zend_smm_shared_globals = type { ptr, i32, i64, i64, i8, %struct._zend_shared_memory_state, ptr, ptr, i64 }
%struct._zend_shared_memory_state = type { ptr, i64 }
%struct._zend_shared_segment = type { i64, i64, i64, ptr }

@smm_shared_globals = hidden global ptr null, align 8

; Function Attrs: nounwind uwtable
define hidden void @zend_accel_shared_protect(i1 noundef zeroext %0) #0 {
  %2 = alloca i8, align 1
  %3 = alloca i32, align 4
  %4 = alloca i32, align 4
  %5 = zext i1 %0 to i8
  store i8 %5, ptr %2, align 1
  %6 = load ptr, ptr @smm_shared_globals, align 8
  %7 = icmp ne ptr %6, null
  br i1 %7, label %9, label %8

8:                                                ; preds = %1
  br label %43

9:                                                ; preds = %1
  %10 = load i8, ptr %2, align 1
  %11 = trunc i8 %10 to i1
  %12 = select i1 %11, i32 1, i32 3
  store i32 %12, ptr %4, align 4
  store i32 0, ptr %3, align 4
  br label %13

13:                                               ; preds = %40, %9
  %14 = load i32, ptr %3, align 4
  %15 = load ptr, ptr @smm_shared_globals, align 8
  %16 = getelementptr inbounds %struct._zend_smm_shared_globals, ptr %15, i32 0, i32 1
  %17 = load i32, ptr %16, align 8
  %18 = icmp slt i32 %14, %17
  br i1 %18, label %19, label %43

19:                                               ; preds = %13
  %20 = load ptr, ptr @smm_shared_globals, align 8
  %21 = getelementptr inbounds %struct._zend_smm_shared_globals, ptr %20, i32 0, i32 0
  %22 = load ptr, ptr %21, align 8
  %23 = load i32, ptr %3, align 4
  %24 = sext i32 %23 to i64
  %25 = getelementptr inbounds ptr, ptr %22, i64 %24
  %26 = load ptr, ptr %25, align 8
  %27 = getelementptr inbounds %struct._zend_shared_segment, ptr %26, i32 0, i32 3
  %28 = load ptr, ptr %27, align 8
  %29 = load ptr, ptr @smm_shared_globals, align 8
  %30 = getelementptr inbounds %struct._zend_smm_shared_globals, ptr %29, i32 0, i32 0
  %31 = load ptr, ptr %30, align 8
  %32 = load i32, ptr %3, align 4
  %33 = sext i32 %32 to i64
  %34 = getelementptr inbounds ptr, ptr %31, i64 %33
  %35 = load ptr, ptr %34, align 8
  %36 = getelementptr inbounds %struct._zend_shared_segment, ptr %35, i32 0, i32 1
  %37 = load i64, ptr %36, align 8
  %38 = load i32, ptr %4, align 4
  %39 = call i32 @mprotect(ptr noundef %28, i64 noundef %37, i32 noundef %38) #10
  br label %40

40:                                               ; preds = %19
  %41 = load i32, ptr %3, align 4
  %42 = add nsw i32 %41, 1
  store i32 %42, ptr %3, align 4
  br label %13

43:                                               ; preds = %13, %8
  ret void
}