; Function Attrs: nounwind uwtable
define hidden void @zend_accel_shared_protect(i1 noundef zeroext %0) local_unnamed_addr #0 {
  %2 = load ptr, ptr @smm_shared_globals, align 8
  %.not = icmp eq ptr %2, null
  br i1 %.not, label %.loopexit, label %3

3:                                                ; preds = %1
  %4 = select i1 %0, i32 1, i32 3
  %5 = getelementptr inbounds i8, ptr %2, i64 8
  %6 = load i32, ptr %5, align 8
  %7 = icmp sgt i32 %6, 0
  br i1 %7, label %.lr.ph, label %.loopexit

.lr.ph:                                           ; preds = %3, %.lr.ph
  %indvars.iv = phi i64 [ %indvars.iv.next, %.lr.ph ], [ 0, %3 ]
  %8 = phi ptr [ %17, %.lr.ph ], [ %2, %3 ]
  %9 = load ptr, ptr %8, align 8
  %10 = getelementptr inbounds ptr, ptr %9, i64 %indvars.iv
  %11 = load ptr, ptr %10, align 8
  %12 = getelementptr inbounds i8, ptr %11, i64 24
  %13 = load ptr, ptr %12, align 8
  %14 = getelementptr inbounds i8, ptr %11, i64 8
  %15 = load i64, ptr %14, align 8
  %16 = tail call i32 @mprotect(ptr noundef %13, i64 noundef %15, i32 noundef %4) #20
  %indvars.iv.next = add nuw nsw i64 %indvars.iv, 1
  %17 = load ptr, ptr @smm_shared_globals, align 8
  %18 = getelementptr inbounds i8, ptr %17, i64 8
  %19 = load i32, ptr %18, align 8
  %20 = sext i32 %19 to i64
  %21 = icmp slt i64 %indvars.iv.next, %20
  br i1 %21, label %.lr.ph, label %.loopexit

.loopexit:                                        ; preds = %.lr.ph, %3, %1
  ret void
}